; Function Attrs: nounwind uwtable
define range(i32 -22, 1) i32 @MRIStepInnerStepper_SetAccumulatedErrorGetFn(ptr noundef readonly captures(address_is_null) %0, ptr noundef %1) local_unnamed_addr #0 {
  %3 = icmp eq ptr %0, null
  br i1 %3, label %4, label %5

4:                                                ; preds = %2
  tail call void (ptr, i32, i32, ptr, ptr, ptr, ...) @arkProcessError(ptr noundef null, i32 noundef -22, i32 noundef 4427, ptr noundef nonnull @__func__.MRIStepInnerStepper_SetAccumulatedErrorGetFn, ptr noundef nonnull @.str, ptr noundef nonnull @.str.96) #14
  br label %12

5:                                                ; preds = %2
  %6 = getelementptr inbounds nuw i8, ptr %0, i64 8
  %7 = load ptr, ptr %6, align 8, !tbaa !103
  %8 = icmp eq ptr %7, null
  br i1 %8, label %9, label %10

9:                                                ; preds = %5
  tail call void (ptr, i32, i32, ptr, ptr, ptr, ...) @arkProcessError(ptr noundef null, i32 noundef -22, i32 noundef 4434, ptr noundef nonnull @__func__.MRIStepInnerStepper_SetAccumulatedErrorGetFn, ptr noundef nonnull @.str, ptr noundef nonnull @.str.97) #14
  br label %12

10:                                               ; preds = %5
  %11 = getelementptr inbounds nuw i8, ptr %7, i64 24
  store ptr %1, ptr %11, align 8, !tbaa !162
  br label %12

12:                                               ; preds = %10, %9, %4
  %.0 = phi i32 [ -22, %4 ], [ -22, %9 ], [ 0, %10 ]
  ret i32 %.0
}